; Function Attrs: mustprogress uwtable
define hidden void @_ZN11value_sweep12reset_valuesEv(ptr noundef nonnull readonly align 8 captures(none) dereferenceable(184) %0) local_unnamed_addr #3 align 2 {
  %2 = getelementptr inbounds nuw i8, ptr %0, i64 88
  %3 = getelementptr inbounds nuw i8, ptr %0, i64 96
  %4 = load ptr, ptr %3, align 8, !tbaa !11
  %5 = icmp eq ptr %4, null
  br i1 %5, label %_ZN15ref_vector_coreI4expr19ref_manager_wrapperIS0_11ast_managerEE5resetEv.exit, label %_ZNK6vectorIP4exprLb0EjE4sizeEv.exit.i

_ZNK6vectorIP4exprLb0EjE4sizeEv.exit.i:           ; preds = %1
  %6 = getelementptr inbounds i8, ptr %4, i64 -4
  %7 = load i32, ptr %6, align 4, !tbaa !38
  %8 = zext i32 %7 to i64
  %9 = getelementptr inbounds nuw ptr, ptr %4, i64 %8
  %.not.i = icmp eq i32 %7, 0
  br i1 %.not.i, label %_ZN15ref_vector_coreI4expr19ref_manager_wrapperIS0_11ast_managerEE13dec_range_refEPKPS0_S7_.exit.thread4.i, label %.lr.ph.i.i

.lr.ph.i.i:                                       ; preds = %_ZNK6vectorIP4exprLb0EjE4sizeEv.exit.i, %_ZN15ref_vector_coreI4expr19ref_manager_wrapperIS0_11ast_managerEE7dec_refEPS0_.exit.i.i
  %.06.i.i = phi ptr [ %18, %_ZN15ref_vector_coreI4expr19ref_manager_wrapperIS0_11ast_managerEE7dec_refEPS0_.exit.i.i ], [ %4, %_ZNK6vectorIP4exprLb0EjE4sizeEv.exit.i ]
  %10 = load ptr, ptr %.06.i.i, align 8, !tbaa !39
  %11 = load ptr, ptr %2, align 8, !tbaa !41
  %.not.i.i.i.i.i = icmp eq ptr %10, null
  br i1 %.not.i.i.i.i.i, label %_ZN15ref_vector_coreI4expr19ref_manager_wrapperIS0_11ast_managerEE7dec_refEPS0_.exit.i.i, label %12

12:                                               ; preds = %.lr.ph.i.i
  %13 = getelementptr inbounds nuw i8, ptr %10, i64 8
  %14 = load i32, ptr %13, align 4, !tbaa !42
  %15 = add i32 %14, -1
  store i32 %15, ptr %13, align 4, !tbaa !42
  %16 = icmp eq i32 %15, 0
  br i1 %16, label %17, label %_ZN15ref_vector_coreI4expr19ref_manager_wrapperIS0_11ast_managerEE7dec_refEPS0_.exit.i.i

17:                                               ; preds = %12
  tail call void @_ZN11ast_manager11delete_nodeEP3ast(ptr noundef nonnull align 8 dereferenceable(976) %11, ptr noundef nonnull %10)
  br label %_ZN15ref_vector_coreI4expr19ref_manager_wrapperIS0_11ast_managerEE7dec_refEPS0_.exit.i.i

_ZN15ref_vector_coreI4expr19ref_manager_wrapperIS0_11ast_managerEE7dec_refEPS0_.exit.i.i: ; preds = %17, %12, %.lr.ph.i.i
  %18 = getelementptr inbounds nuw i8, ptr %.06.i.i, i64 8
  %19 = icmp ult ptr %18, %9
  br i1 %19, label %.lr.ph.i.i, label %_ZN15ref_vector_coreI4expr19ref_manager_wrapperIS0_11ast_managerEE13dec_range_refEPKPS0_S7_.exit.i, !llvm.loop !44

_ZN15ref_vector_coreI4expr19ref_manager_wrapperIS0_11ast_managerEE13dec_range_refEPKPS0_S7_.exit.i: ; preds = %_ZN15ref_vector_coreI4expr19ref_manager_wrapperIS0_11ast_managerEE7dec_refEPS0_.exit.i.i
  %.pre.i = load ptr, ptr %3, align 8, !tbaa !11
  %.not.i.i = icmp eq ptr %.pre.i, null
  br i1 %.not.i.i, label %_ZN15ref_vector_coreI4expr19ref_manager_wrapperIS0_11ast_managerEE5resetEv.exit, label %_ZN15ref_vector_coreI4expr19ref_manager_wrapperIS0_11ast_managerEE13dec_range_refEPKPS0_S7_.exit.thread4.i

_ZN15ref_vector_coreI4expr19ref_manager_wrapperIS0_11ast_managerEE13dec_range_refEPKPS0_S7_.exit.thread4.i: ; preds = %_ZN15ref_vector_coreI4expr19ref_manager_wrapperIS0_11ast_managerEE13dec_range_refEPKPS0_S7_.exit.i, %_ZNK6vectorIP4exprLb0EjE4sizeEv.exit.i
  %20 = phi ptr [ %.pre.i, %_ZN15ref_vector_coreI4expr19ref_manager_wrapperIS0_11ast_managerEE13dec_range_refEPKPS0_S7_.exit.i ], [ %4, %_ZNK6vectorIP4exprLb0EjE4sizeEv.exit.i ]
  %21 = getelementptr inbounds i8, ptr %20, i64 -4
  store i32 0, ptr %21, align 4, !tbaa !38
  br label %_ZN15ref_vector_coreI4expr19ref_manager_wrapperIS0_11ast_managerEE5resetEv.exit

_ZN15ref_vector_coreI4expr19ref_manager_wrapperIS0_11ast_managerEE5resetEv.exit: ; preds = %1, %_ZN15ref_vector_coreI4expr19ref_manager_wrapperIS0_11ast_managerEE13dec_range_refEPKPS0_S7_.exit.i, %_ZN15ref_vector_coreI4expr19ref_manager_wrapperIS0_11ast_managerEE13dec_range_refEPKPS0_S7_.exit.thread4.i
  %22 = getelementptr inbounds nuw i8, ptr %0, i64 120
  %23 = getelementptr inbounds nuw i8, ptr %0, i64 128
  %24 = load ptr, ptr %23, align 8, !tbaa !11
  %25 = icmp eq ptr %24, null
  br i1 %25, label %_ZN15ref_vector_coreI4expr19ref_manager_wrapperIS0_11ast_managerEE5resetEv.exit11, label %_ZNK6vectorIP4exprLb0EjE4sizeEv.exit.i1

_ZNK6vectorIP4exprLb0EjE4sizeEv.exit.i1:          ; preds = %_ZN15ref_vector_coreI4expr19ref_manager_wrapperIS0_11ast_managerEE5resetEv.exit
  %26 = getelementptr inbounds i8, ptr %24, i64 -4
  %27 = load i32, ptr %26, align 4, !tbaa !38
  %28 = zext i32 %27 to i64
  %29 = getelementptr inbounds nuw ptr, ptr %24, i64 %28
  %.not.i2 = icmp eq i32 %27, 0
  br i1 %.not.i2, label %_ZN15ref_vector_coreI4expr19ref_manager_wrapperIS0_11ast_managerEE13dec_range_refEPKPS0_S7_.exit.thread4.i10, label %.lr.ph.i.i3

.lr.ph.i.i3:                                      ; preds = %_ZNK6vectorIP4exprLb0EjE4sizeEv.exit.i1, %_ZN15ref_vector_coreI4expr19ref_manager_wrapperIS0_11ast_managerEE7dec_refEPS0_.exit.i.i6
  %.06.i.i4 = phi ptr [ %38, %_ZN15ref_vector_coreI4expr19ref_manager_wrapperIS0_11ast_managerEE7dec_refEPS0_.exit.i.i6 ], [ %24, %_ZNK6vectorIP4exprLb0EjE4sizeEv.exit.i1 ]
  %30 = load ptr, ptr %.06.i.i4, align 8, !tbaa !39
  %31 = load ptr, ptr %22, align 8, !tbaa !41
  %.not.i.i.i.i.i5 = icmp eq ptr %30, null
  br i1 %.not.i.i.i.i.i5, label %_ZN15ref_vector_coreI4expr19ref_manager_wrapperIS0_11ast_managerEE7dec_refEPS0_.exit.i.i6, label %32

32:                                               ; preds = %.lr.ph.i.i3
  %33 = getelementptr inbounds nuw i8, ptr %30, i64 8
  %34 = load i32, ptr %33, align 4, !tbaa !42
  %35 = add i32 %34, -1
  store i32 %35, ptr %33, align 4, !tbaa !42
  %36 = icmp eq i32 %35, 0
  br i1 %36, label %37, label %_ZN15ref_vector_coreI4expr19ref_manager_wrapperIS0_11ast_managerEE7dec_refEPS0_.exit.i.i6

37:                                               ; preds = %32
  tail call void @_ZN11ast_manager11delete_nodeEP3ast(ptr noundef nonnull align 8 dereferenceable(976) %31, ptr noundef nonnull %30)
  br label %_ZN15ref_vector_coreI4expr19ref_manager_wrapperIS0_11ast_managerEE7dec_refEPS0_.exit.i.i6

_ZN15ref_vector_coreI4expr19ref_manager_wrapperIS0_11ast_managerEE7dec_refEPS0_.exit.i.i6: ; preds = %37, %32, %.lr.ph.i.i3
  %38 = getelementptr inbounds nuw i8, ptr %.06.i.i4, i64 8
  %39 = icmp ult ptr %38, %29
  br i1 %39, label %.lr.ph.i.i3, label %_ZN15ref_vector_coreI4expr19ref_manager_wrapperIS0_11ast_managerEE13dec_range_refEPKPS0_S7_.exit.i7, !llvm.loop !44

_ZN15ref_vector_coreI4expr19ref_manager_wrapperIS0_11ast_managerEE13dec_range_refEPKPS0_S7_.exit.i7: ; preds = %_ZN15ref_vector_coreI4expr19ref_manager_wrapperIS0_11ast_managerEE7dec_refEPS0_.exit.i.i6
  %.pre.i8 = load ptr, ptr %23, align 8, !tbaa !11
  %.not.i.i9 = icmp eq ptr %.pre.i8, null
  br i1 %.not.i.i9, label %_ZN15ref_vector_coreI4expr19ref_manager_wrapperIS0_11ast_managerEE5resetEv.exit11, label %_ZN15ref_vector_coreI4expr19ref_manager_wrapperIS0_11ast_managerEE13dec_range_refEPKPS0_S7_.exit.thread4.i10

_ZN15ref_vector_coreI4expr19ref_manager_wrapperIS0_11ast_managerEE13dec_range_refEPKPS0_S7_.exit.thread4.i10: ; preds = %_ZN15ref_vector_coreI4expr19ref_manager_wrapperIS0_11ast_managerEE13dec_range_refEPKPS0_S7_.exit.i7, %_ZNK6vectorIP4exprLb0EjE4sizeEv.exit.i1
  %40 = phi ptr [ %.pre.i8, %_ZN15ref_vector_coreI4expr19ref_manager_wrapperIS0_11ast_managerEE13dec_range_refEPKPS0_S7_.exit.i7 ], [ %24, %_ZNK6vectorIP4exprLb0EjE4sizeEv.exit.i1 ]
  %41 = getelementptr inbounds i8, ptr %40, i64 -4
  store i32 0, ptr %41, align 4, !tbaa !38
  br label %_ZN15ref_vector_coreI4expr19ref_manager_wrapperIS0_11ast_managerEE5resetEv.exit11

_ZN15ref_vector_coreI4expr19ref_manager_wrapperIS0_11ast_managerEE5resetEv.exit11: ; preds = %_ZN15ref_vector_coreI4expr19ref_manager_wrapperIS0_11ast_managerEE5resetEv.exit, %_ZN15ref_vector_coreI4expr19ref_manager_wrapperIS0_11ast_managerEE13dec_range_refEPKPS0_S7_.exit.i7, %_ZN15ref_vector_coreI4expr19ref_manager_wrapperIS0_11ast_managerEE13dec_range_refEPKPS0_S7_.exit.thread4.i10
  ret void
}